target datalayout = "e-m:e-p270:32:32-p271:32:32-p272:64:64-i64:64-i128:128-f80:128-n8:16:32:64-S128"
target triple = "x86_64-pc-linux-gnu"

%struct.pack_info = type { float, i32, i32, i8, i32, ptr, ptr, i32 }

@.str.1 = private unnamed_addr constant [3 x i8] c"%d\00", align 1
@.str.2 = private unnamed_addr constant [6 x i8] c"array\00", align 1
@.str.3 = private unnamed_addr constant [7 x i8] c"aspect\00", align 1
@.str.4 = private unnamed_addr constant [3 x i8] c"%f\00", align 1
@.str.5 = private unnamed_addr constant [8 x i8] c"cluster\00", align 1
@.str.6 = private unnamed_addr constant [6 x i8] c"graph\00", align 1
@.str.7 = private unnamed_addr constant [5 x i8] c"node\00", align 1
@Verbose = external global i8, align 1
@stderr = external global ptr, align 8
@.str.8 = private unnamed_addr constant [12 x i8] c"pack info:\0A\00", align 1
@.str.9 = private unnamed_addr constant [13 x i8] c"  mode   %s\0A\00", align 1
@.str.10 = private unnamed_addr constant [13 x i8] c"  aspect %f\0A\00", align 1
@.str.11 = private unnamed_addr constant [13 x i8] c"  size   %d\0A\00", align 1
@.str.12 = private unnamed_addr constant [13 x i8] c"  flags  %d\0A\00", align 1
@.str.33 = private unnamed_addr constant [10 x i8] c"undefined\00", align 1

; Function Attrs: nounwind uwtable
define internal ptr @mode2Str(i32 noundef %0) #0 {
  %2 = alloca ptr, align 8
  %3 = alloca i32, align 4
  store i32 %0, ptr %3, align 4, !tbaa !35
  %4 = load i32, ptr %3, align 4, !tbaa !35
  switch i32 %4, label %11 [
    i32 1, label %5
    i32 2, label %6
    i32 3, label %7
    i32 4, label %8
    i32 5, label %9
    i32 0, label %10
  ]

5:                                                ; preds = %1
  store ptr @.str.5, ptr %2, align 8
  br label %13

6:                                                ; preds = %1
  store ptr @.str.7, ptr %2, align 8
  br label %13

7:                                                ; preds = %1
  store ptr @.str.6, ptr %2, align 8
  br label %13

8:                                                ; preds = %1
  store ptr @.str.2, ptr %2, align 8
  br label %13

9:                                                ; preds = %1
  store ptr @.str.3, ptr %2, align 8
  br label %13

10:                                               ; preds = %1
  br label %11

11:                                               ; preds = %1, %10
  br label %12

12:                                               ; preds = %11
  store ptr @.str.33, ptr %2, align 8
  br label %13

13:                                               ; preds = %12, %9, %8, %7, %6, %5
  %14 = load ptr, ptr %2, align 8
  ret ptr %14
}

; Function Attrs: inlinehint nounwind uwtable
define internal zeroext i1 @streq(ptr noundef %0, ptr noundef %1) #2 {
  %3 = alloca ptr, align 8
  %4 = alloca ptr, align 8
  store ptr %0, ptr %3, align 8, !tbaa !33
  store ptr %1, ptr %4, align 8, !tbaa !33
  %5 = load ptr, ptr %3, align 8, !tbaa !33
  %6 = load ptr, ptr %4, align 8, !tbaa !33
  %7 = call i32 @strcmp(ptr noundef %5, ptr noundef %6) #15
  %8 = icmp eq i32 %7, 0
  ret i1 %8
}

; Function Attrs: nounwind uwtable
define internal ptr @chkFlags(ptr noundef %0, ptr noundef %1) #0 {
  %3 = alloca ptr, align 8
  %4 = alloca ptr, align 8
  %5 = alloca ptr, align 8
  %6 = alloca i32, align 4
  %7 = alloca i32, align 4
  %8 = alloca i32, align 4
  store ptr %0, ptr %4, align 8, !tbaa !33
  store ptr %1, ptr %5, align 8, !tbaa !12
  call void @llvm.lifetime.start.p0(i64 4, ptr %6) #12
  call void @llvm.lifetime.start.p0(i64 4, ptr %7) #12
  %9 = load ptr, ptr %4, align 8, !tbaa !33
  %10 = load i8, ptr %9, align 1, !tbaa !66
  %11 = sext i8 %10 to i32
  %12 = icmp ne i32 %11, 95
  br i1 %12, label %13, label %15

13:                                               ; preds = %2
  %14 = load ptr, ptr %4, align 8, !tbaa !33
  store ptr %14, ptr %3, align 8
  store i32 1, ptr %8, align 4
  br label %83

15:                                               ; preds = %2
  %16 = load ptr, ptr %4, align 8, !tbaa !33
  %17 = getelementptr inbounds nuw i8, ptr %16, i32 1
  store ptr %17, ptr %4, align 8, !tbaa !33
  store i32 1, ptr %7, align 4, !tbaa !35
  br label %18

18:                                               ; preds = %80, %15
  %19 = load i32, ptr %7, align 4, !tbaa !35
  %20 = icmp ne i32 %19, 0
  br i1 %20, label %21, label %26

21:                                               ; preds = %18
  %22 = load ptr, ptr %4, align 8, !tbaa !33
  %23 = load i8, ptr %22, align 1, !tbaa !66
  %24 = sext i8 %23 to i32
  store i32 %24, ptr %6, align 4, !tbaa !35
  %25 = icmp ne i32 %24, 0
  br label %26

26:                                               ; preds = %21, %18
  %27 = phi i1 [ false, %18 ], [ %25, %21 ]
  br i1 %27, label %28, label %81

28:                                               ; preds = %26
  %29 = load i32, ptr %6, align 4, !tbaa !35
  switch i32 %29, label %79 [
    i32 99, label %30
    i32 105, label %37
    i32 117, label %44
    i32 116, label %51
    i32 98, label %58
    i32 108, label %65
    i32 114, label %72
  ]

30:                                               ; preds = %28
  %31 = load ptr, ptr %5, align 8, !tbaa !12
  %32 = getelementptr inbounds nuw %struct.pack_info, ptr %31, i32 0, i32 7
  %33 = load i32, ptr %32, align 8, !tbaa !31
  %34 = or i32 %33, 1
  store i32 %34, ptr %32, align 8, !tbaa !31
  %35 = load ptr, ptr %4, align 8, !tbaa !33
  %36 = getelementptr inbounds nuw i8, ptr %35, i32 1
  store ptr %36, ptr %4, align 8, !tbaa !33
  br label %80

37:                                               ; preds = %28
  %38 = load ptr, ptr %5, align 8, !tbaa !12
  %39 = getelementptr inbounds nuw %struct.pack_info, ptr %38, i32 0, i32 7
  %40 = load i32, ptr %39, align 8, !tbaa !31
  %41 = or i32 %40, 64
  store i32 %41, ptr %39, align 8, !tbaa !31
  %42 = load ptr, ptr %4, align 8, !tbaa !33
  %43 = getelementptr inbounds nuw i8, ptr %42, i32 1
  store ptr %43, ptr %4, align 8, !tbaa !33
  br label %80

44:                                               ; preds = %28
  %45 = load ptr, ptr %5, align 8, !tbaa !12
  %46 = getelementptr inbounds nuw %struct.pack_info, ptr %45, i32 0, i32 7
  %47 = load i32, ptr %46, align 8, !tbaa !31
  %48 = or i32 %47, 2
  store i32 %48, ptr %46, align 8, !tbaa !31
  %49 = load ptr, ptr %4, align 8, !tbaa !33
  %50 = getelementptr inbounds nuw i8, ptr %49, i32 1
  store ptr %50, ptr %4, align 8, !tbaa !33
  br label %80

51:                                               ; preds = %28
  %52 = load ptr, ptr %5, align 8, !tbaa !12
  %53 = getelementptr inbounds nuw %struct.pack_info, ptr %52, i32 0, i32 7
  %54 = load i32, ptr %53, align 8, !tbaa !31
  %55 = or i32 %54, 16
  store i32 %55, ptr %53, align 8, !tbaa !31
  %56 = load ptr, ptr %4, align 8, !tbaa !33
  %57 = getelementptr inbounds nuw i8, ptr %56, i32 1
  store ptr %57, ptr %4, align 8, !tbaa !33
  br label %80

58:                                               ; preds = %28
  %59 = load ptr, ptr %5, align 8, !tbaa !12
  %60 = getelementptr inbounds nuw %struct.pack_info, ptr %59, i32 0, i32 7
  %61 = load i32, ptr %60, align 8, !tbaa !31
  %62 = or i32 %61, 32
  store i32 %62, ptr %60, align 8, !tbaa !31
  %63 = load ptr, ptr %4, align 8, !tbaa !33
  %64 = getelementptr inbounds nuw i8, ptr %63, i32 1
  store ptr %64, ptr %4, align 8, !tbaa !33
  br label %80

65:                                               ; preds = %28
  %66 = load ptr, ptr %5, align 8, !tbaa !12
  %67 = getelementptr inbounds nuw %struct.pack_info, ptr %66, i32 0, i32 7
  %68 = load i32, ptr %67, align 8, !tbaa !31
  %69 = or i32 %68, 4
  store i32 %69, ptr %67, align 8, !tbaa !31
  %70 = load ptr, ptr %4, align 8, !tbaa !33
  %71 = getelementptr inbounds nuw i8, ptr %70, i32 1
  store ptr %71, ptr %4, align 8, !tbaa !33
  br label %80

72:                                               ; preds = %28
  %73 = load ptr, ptr %5, align 8, !tbaa !12
  %74 = getelementptr inbounds nuw %struct.pack_info, ptr %73, i32 0, i32 7
  %75 = load i32, ptr %74, align 8, !tbaa !31
  %76 = or i32 %75, 8
  store i32 %76, ptr %74, align 8, !tbaa !31
  %77 = load ptr, ptr %4, align 8, !tbaa !33
  %78 = getelementptr inbounds nuw i8, ptr %77, i32 1
  store ptr %78, ptr %4, align 8, !tbaa !33
  br label %80

79:                                               ; preds = %28
  store i32 0, ptr %7, align 4, !tbaa !35
  br label %80

80:                                               ; preds = %79, %72, %65, %58, %51, %44, %37, %30
  br label %18, !llvm.loop !156

81:                                               ; preds = %26
  %82 = load ptr, ptr %4, align 8, !tbaa !33
  store ptr %82, ptr %3, align 8
  store i32 1, ptr %8, align 4
  br label %83

83:                                               ; preds = %81, %13
  call void @llvm.lifetime.end.p0(i64 4, ptr %7) #12
  call void @llvm.lifetime.end.p0(i64 4, ptr %6) #12
  %84 = load ptr, ptr %3, align 8
  ret ptr %84
}

; Function Attrs: inlinehint nounwind uwtable
define internal zeroext i1 @startswith(ptr noundef %0, ptr noundef %1) #2 {
  %3 = alloca ptr, align 8
  %4 = alloca ptr, align 8
  store ptr %0, ptr %3, align 8, !tbaa !33
  store ptr %1, ptr %4, align 8, !tbaa !33
  %5 = load ptr, ptr %3, align 8, !tbaa !33
  %6 = load ptr, ptr %4, align 8, !tbaa !33
  %7 = load ptr, ptr %4, align 8, !tbaa !33
  %8 = call i64 @strlen(ptr noundef %7) #15
  %9 = call i32 @strncmp(ptr noundef %5, ptr noundef %6, i64 noundef %8) #15
  %10 = icmp eq i32 %9, 0
  ret i1 %10
}

; Function Attrs: nounwind uwtable
define i32 @parsePackModeInfo(ptr noundef %0, i32 noundef %1, ptr noundef %2) #0 {
  %4 = alloca ptr, align 8
  %5 = alloca i32, align 4
  %6 = alloca ptr, align 8
  %7 = alloca float, align 4
  %8 = alloca i32, align 4
  store ptr %0, ptr %4, align 8, !tbaa !33
  store i32 %1, ptr %5, align 4, !tbaa !35
  store ptr %2, ptr %6, align 8, !tbaa !12
  call void @llvm.lifetime.start.p0(i64 4, ptr %7) #12
  call void @llvm.lifetime.start.p0(i64 4, ptr %8) #12
  %9 = load ptr, ptr %6, align 8, !tbaa !12
  %10 = getelementptr inbounds nuw %struct.pack_info, ptr %9, i32 0, i32 7
  store i32 0, ptr %10, align 8, !tbaa !31
  %11 = load i32, ptr %5, align 4, !tbaa !35
  %12 = load ptr, ptr %6, align 8, !tbaa !12
  %13 = getelementptr inbounds nuw %struct.pack_info, ptr %12, i32 0, i32 4
  store i32 %11, ptr %13, align 8, !tbaa !15
  %14 = load ptr, ptr %6, align 8, !tbaa !12
  %15 = getelementptr inbounds nuw %struct.pack_info, ptr %14, i32 0, i32 1
  store i32 0, ptr %15, align 4, !tbaa !84
  %16 = load ptr, ptr %6, align 8, !tbaa !12
  %17 = getelementptr inbounds nuw %struct.pack_info, ptr %16, i32 0, i32 6
  store ptr null, ptr %17, align 8, !tbaa !32
  %18 = load ptr, ptr %4, align 8, !tbaa !33
  %19 = icmp ne ptr %18, null
  br i1 %19, label %20, label %86

20:                                               ; preds = %3
  %21 = load ptr, ptr %4, align 8, !tbaa !33
  %22 = call zeroext i1 @startswith(ptr noundef %21, ptr noundef @.str.2)
  br i1 %22, label %23, label %42

23:                                               ; preds = %20
  %24 = load ptr, ptr %6, align 8, !tbaa !12
  %25 = getelementptr inbounds nuw %struct.pack_info, ptr %24, i32 0, i32 4
  store i32 4, ptr %25, align 8, !tbaa !15
  %26 = load ptr, ptr %4, align 8, !tbaa !33
  %27 = getelementptr inbounds nuw i8, ptr %26, i64 5
  store ptr %27, ptr %4, align 8, !tbaa !33
  %28 = load ptr, ptr %4, align 8, !tbaa !33
  %29 = load ptr, ptr %6, align 8, !tbaa !12
  %30 = call ptr @chkFlags(ptr noundef %28, ptr noundef %29)
  store ptr %30, ptr %4, align 8, !tbaa !33
  %31 = load ptr, ptr %4, align 8, !tbaa !33
  %32 = call i32 (ptr, ptr, ...) @__isoc99_sscanf(ptr noundef %31, ptr noundef @.str.1, ptr noundef %8) #12
  %33 = icmp sgt i32 %32, 0
  br i1 %33, label %34, label %41

34:                                               ; preds = %23
  %35 = load i32, ptr %8, align 4, !tbaa !35
  %36 = icmp sgt i32 %35, 0
  br i1 %36, label %37, label %41

37:                                               ; preds = %34
  %38 = load i32, ptr %8, align 4, !tbaa !35
  %39 = load ptr, ptr %6, align 8, !tbaa !12
  %40 = getelementptr inbounds nuw %struct.pack_info, ptr %39, i32 0, i32 1
  store i32 %38, ptr %40, align 4, !tbaa !84
  br label %41

41:                                               ; preds = %37, %34, %23
  br label %85

42:                                               ; preds = %20
  %43 = load ptr, ptr %4, align 8, !tbaa !33
  %44 = call zeroext i1 @startswith(ptr noundef %43, ptr noundef @.str.3)
  br i1 %44, label %45, label %63

45:                                               ; preds = %42
  %46 = load ptr, ptr %6, align 8, !tbaa !12
  %47 = getelementptr inbounds nuw %struct.pack_info, ptr %46, i32 0, i32 4
  store i32 5, ptr %47, align 8, !tbaa !15
  %48 = load ptr, ptr %4, align 8, !tbaa !33
  %49 = getelementptr inbounds nuw i8, ptr %48, i64 6
  %50 = call i32 (ptr, ptr, ...) @__isoc99_sscanf(ptr noundef %49, ptr noundef @.str.4, ptr noundef %7) #12
  %51 = icmp sgt i32 %50, 0
  br i1 %51, label %52, label %59

52:                                               ; preds = %45
  %53 = load float, ptr %7, align 4, !tbaa !154
  %54 = fcmp ogt float %53, 0.000000e+00
  br i1 %54, label %55, label %59

55:                                               ; preds = %52
  %56 = load float, ptr %7, align 4, !tbaa !154
  %57 = load ptr, ptr %6, align 8, !tbaa !12
  %58 = getelementptr inbounds nuw %struct.pack_info, ptr %57, i32 0, i32 0
  store float %56, ptr %58, align 8, !tbaa !155
  br label %62

59:                                               ; preds = %52, %45
  %60 = load ptr, ptr %6, align 8, !tbaa !12
  %61 = getelementptr inbounds nuw %struct.pack_info, ptr %60, i32 0, i32 0
  store float 1.000000e+00, ptr %61, align 8, !tbaa !155
  br label %62

62:                                               ; preds = %59, %55
  br label %84

63:                                               ; preds = %42
  %64 = load ptr, ptr %4, align 8, !tbaa !33
  %65 = call zeroext i1 @streq(ptr noundef %64, ptr noundef @.str.5)
  br i1 %65, label %66, label %69

66:                                               ; preds = %63
  %67 = load ptr, ptr %6, align 8, !tbaa !12
  %68 = getelementptr inbounds nuw %struct.pack_info, ptr %67, i32 0, i32 4
  store i32 1, ptr %68, align 8, !tbaa !15
  br label %83

69:                                               ; preds = %63
  %70 = load ptr, ptr %4, align 8, !tbaa !33
  %71 = call zeroext i1 @streq(ptr noundef %70, ptr noundef @.str.6)
  br i1 %71, label %72, label %75

72:                                               ; preds = %69
  %73 = load ptr, ptr %6, align 8, !tbaa !12
  %74 = getelementptr inbounds nuw %struct.pack_info, ptr %73, i32 0, i32 4
  store i32 3, ptr %74, align 8, !tbaa !15
  br label %82

75:                                               ; preds = %69
  %76 = load ptr, ptr %4, align 8, !tbaa !33
  %77 = call zeroext i1 @streq(ptr noundef %76, ptr noundef @.str.7)
  br i1 %77, label %78, label %81

78:                                               ; preds = %75
  %79 = load ptr, ptr %6, align 8, !tbaa !12
  %80 = getelementptr inbounds nuw %struct.pack_info, ptr %79, i32 0, i32 4
  store i32 2, ptr %80, align 8, !tbaa !15
  br label %81

81:                                               ; preds = %78, %75
  br label %82

82:                                               ; preds = %81, %72
  br label %83

83:                                               ; preds = %82, %66
  br label %84

84:                                               ; preds = %83, %62
  br label %85

85:                                               ; preds = %84, %41
  br label %86

86:                                               ; preds = %85, %3
  %87 = load i8, ptr @Verbose, align 1, !tbaa !66
  %88 = icmp ne i8 %87, 0
  br i1 %88, label %89, label %120

89:                                               ; preds = %86
  %90 = load ptr, ptr @stderr, align 8, !tbaa !67
  %91 = call i32 (ptr, ptr, ...) @fprintf(ptr noundef %90, ptr noundef @.str.8) #12
  %92 = load ptr, ptr @stderr, align 8, !tbaa !67
  %93 = load ptr, ptr %6, align 8, !tbaa !12
  %94 = getelementptr inbounds nuw %struct.pack_info, ptr %93, i32 0, i32 4
  %95 = load i32, ptr %94, align 8, !tbaa !15
  %96 = call ptr @mode2Str(i32 noundef %95)
  %97 = call i32 (ptr, ptr, ...) @fprintf(ptr noundef %92, ptr noundef @.str.9, ptr noundef %96) #12
  %98 = load ptr, ptr %6, align 8, !tbaa !12
  %99 = getelementptr inbounds nuw %struct.pack_info, ptr %98, i32 0, i32 4
  %100 = load i32, ptr %99, align 8, !tbaa !15
  %101 = icmp eq i32 %100, 5
  br i1 %101, label %102, label %109

102:                                              ; preds = %89
  %103 = load ptr, ptr @stderr, align 8, !tbaa !67
  %104 = load ptr, ptr %6, align 8, !tbaa !12
  %105 = getelementptr inbounds nuw %struct.pack_info, ptr %104, i32 0, i32 0
  %106 = load float, ptr %105, align 8, !tbaa !155
  %107 = fpext float %106 to double
  %108 = call i32 (ptr, ptr, ...) @fprintf(ptr noundef %103, ptr noundef @.str.10, double noundef %107) #12
  br label %109

109:                                              ; preds = %102, %89
  %110 = load ptr, ptr @stderr, align 8, !tbaa !67
  %111 = load ptr, ptr %6, align 8, !tbaa !12
  %112 = getelementptr inbounds nuw %struct.pack_info, ptr %111, i32 0, i32 1
  %113 = load i32, ptr %112, align 4, !tbaa !84
  %114 = call i32 (ptr, ptr, ...) @fprintf(ptr noundef %110, ptr noundef @.str.11, i32 noundef %113) #12
  %115 = load ptr, ptr @stderr, align 8, !tbaa !67
  %116 = load ptr, ptr %6, align 8, !tbaa !12
  %117 = getelementptr inbounds nuw %struct.pack_info, ptr %116, i32 0, i32 7
  %118 = load i32, ptr %117, align 8, !tbaa !31
  %119 = call i32 (ptr, ptr, ...) @fprintf(ptr noundef %115, ptr noundef @.str.12, i32 noundef %118) #12
  br label %120

120:                                              ; preds = %109, %86
  %121 = load ptr, ptr %6, align 8, !tbaa !12
  %122 = getelementptr inbounds nuw %struct.pack_info, ptr %121, i32 0, i32 4
  %123 = load i32, ptr %122, align 8, !tbaa !15
  call void @llvm.lifetime.end.p0(i64 4, ptr %8) #12
  call void @llvm.lifetime.end.p0(i64 4, ptr %7) #12
  ret i32 %123
}