; Function Attrs: nofree nounwind uwtable
define i32 @parsePackModeInfo(ptr noundef readonly captures(address_is_null) %0, i32 noundef %1, ptr noundef captures(none) initializes((4, 8), (16, 20), (32, 44)) %2) local_unnamed_addr #7 {
  %4 = alloca float, align 4
  %5 = alloca i32, align 4
  call void @llvm.lifetime.start.p0(i64 4, ptr nonnull %4) #19
  call void @llvm.lifetime.start.p0(i64 4, ptr nonnull %5) #19
  %6 = getelementptr inbounds nuw i8, ptr %2, i64 40
  store i32 0, ptr %6, align 8, !tbaa !106
  %7 = getelementptr inbounds nuw i8, ptr %2, i64 16
  store i32 %1, ptr %7, align 8, !tbaa !3
  %8 = getelementptr inbounds nuw i8, ptr %2, i64 4
  store i32 0, ptr %8, align 4, !tbaa !110
  %9 = getelementptr inbounds nuw i8, ptr %2, i64 32
  store ptr null, ptr %9, align 8, !tbaa !107
  %.not = icmp eq ptr %0, null
  br i1 %.not, label %54, label %10

10:                                               ; preds = %3
  %11 = tail call i32 @strncmp(ptr noundef nonnull readonly dereferenceable(1) %0, ptr noundef nonnull dereferenceable(6) @.str.2, i64 noundef 5) #23
  %12 = icmp eq i32 %11, 0
  br i1 %12, label %13, label %31

13:                                               ; preds = %10
  store i32 4, ptr %7, align 8, !tbaa !3
  %14 = getelementptr inbounds nuw i8, ptr %0, i64 5
  %15 = load i8, ptr %14, align 1, !tbaa !47
  %.not.i = icmp eq i8 %15, 95
  br i1 %.not.i, label %.preheader, label %chkFlags.exit

.preheader:                                       ; preds = %13, %24
  %16 = phi i32 [ %25, %24 ], [ 0, %13 ]
  %.pn.i = phi ptr [ %.02227.i, %24 ], [ %14, %13 ]
  %.02227.i = getelementptr inbounds nuw i8, ptr %.pn.i, i64 1
  %17 = load i8, ptr %.02227.i, align 1, !tbaa !47
  switch i8 %17, label %chkFlags.exit [
    i8 114, label %23
    i8 99, label %24
    i8 105, label %18
    i8 117, label %19
    i8 116, label %20
    i8 98, label %21
    i8 108, label %22
  ]

18:                                               ; preds = %.preheader
  br label %24

19:                                               ; preds = %.preheader
  br label %24

20:                                               ; preds = %.preheader
  br label %24

21:                                               ; preds = %.preheader
  br label %24

22:                                               ; preds = %.preheader
  br label %24

23:                                               ; preds = %.preheader
  br label %24

24:                                               ; preds = %23, %22, %21, %20, %19, %18, %.preheader
  %.sink31.i = phi i32 [ 8, %23 ], [ 4, %22 ], [ 32, %21 ], [ 16, %20 ], [ 2, %19 ], [ 64, %18 ], [ 1, %.preheader ]
  %25 = or i32 %16, %.sink31.i
  store i32 %25, ptr %6, align 8, !tbaa !106
  br label %.preheader, !llvm.loop !164

chkFlags.exit:                                    ; preds = %.preheader, %13
  %.021.i = phi ptr [ %14, %13 ], [ %.02227.i, %.preheader ]
  %26 = call i32 (ptr, ptr, ...) @__isoc99_sscanf(ptr noundef nonnull %.021.i, ptr noundef nonnull @.str.1, ptr noundef nonnull %5) #19
  %27 = icmp sgt i32 %26, 0
  %28 = load i32, ptr %5, align 4
  %29 = icmp sgt i32 %28, 0
  %or.cond = select i1 %27, i1 %29, i1 false
  br i1 %or.cond, label %30, label %54

30:                                               ; preds = %chkFlags.exit
  store i32 %28, ptr %8, align 4, !tbaa !110
  br label %54

31:                                               ; preds = %10
  %32 = tail call i32 @strncmp(ptr noundef nonnull readonly dereferenceable(1) %0, ptr noundef nonnull dereferenceable(7) @.str.3, i64 noundef 6) #23
  %33 = icmp eq i32 %32, 0
  br i1 %33, label %34, label %42

34:                                               ; preds = %31
  store i32 5, ptr %7, align 8, !tbaa !3
  %35 = getelementptr inbounds nuw i8, ptr %0, i64 6
  %36 = call i32 (ptr, ptr, ...) @__isoc99_sscanf(ptr noundef nonnull %35, ptr noundef nonnull @.str.4, ptr noundef nonnull %4) #19
  %37 = icmp sgt i32 %36, 0
  %38 = load float, ptr %4, align 4
  %39 = fcmp ogt float %38, 0.000000e+00
  %or.cond3 = select i1 %37, i1 %39, i1 false
  br i1 %or.cond3, label %40, label %41

40:                                               ; preds = %34
  store float %38, ptr %2, align 8, !tbaa !165
  br label %54

41:                                               ; preds = %34
  store float 1.000000e+00, ptr %2, align 8, !tbaa !165
  br label %54

42:                                               ; preds = %31
  %43 = tail call i32 @strcmp(ptr noundef nonnull readonly dereferenceable(1) %0, ptr noundef nonnull dereferenceable(8) @.str.5) #23
  %44 = icmp eq i32 %43, 0
  br i1 %44, label %45, label %46

45:                                               ; preds = %42
  store i32 1, ptr %7, align 8, !tbaa !3
  br label %54

46:                                               ; preds = %42
  %47 = tail call i32 @strcmp(ptr noundef nonnull readonly dereferenceable(1) %0, ptr noundef nonnull dereferenceable(6) @.str.6) #23
  %48 = icmp eq i32 %47, 0
  br i1 %48, label %49, label %50

49:                                               ; preds = %46
  store i32 3, ptr %7, align 8, !tbaa !3
  br label %54

50:                                               ; preds = %46
  %51 = tail call i32 @strcmp(ptr noundef nonnull readonly dereferenceable(1) %0, ptr noundef nonnull dereferenceable(5) @.str.7) #23
  %52 = icmp eq i32 %51, 0
  br i1 %52, label %53, label %54

53:                                               ; preds = %50
  store i32 2, ptr %7, align 8, !tbaa !3
  br label %54

54:                                               ; preds = %30, %chkFlags.exit, %45, %50, %53, %49, %40, %41, %3
  %55 = load i8, ptr @Verbose, align 1, !tbaa !47
  %.not34 = icmp eq i8 %55, 0
  br i1 %.not34, label %78, label %56

56:                                               ; preds = %54
  %57 = load ptr, ptr @stderr, align 8, !tbaa !14
  %58 = call i64 @fwrite(ptr nonnull @.str.8, i64 11, i64 1, ptr %57) #24
  %59 = load ptr, ptr @stderr, align 8, !tbaa !14
  %60 = load i32, ptr %7, align 8, !tbaa !3
  %switch.tableidx = add i32 %60, -1
  %61 = icmp ult i32 %switch.tableidx, 5
  br i1 %61, label %switch.lookup, label %mode2Str.exit

switch.lookup:                                    ; preds = %56
  %62 = zext nneg i32 %switch.tableidx to i64
  %switch.gep = getelementptr inbounds nuw [5 x ptr], ptr @switch.table.parsePackModeInfo, i64 0, i64 %62
  %switch.load = load ptr, ptr %switch.gep, align 8
  br label %mode2Str.exit

mode2Str.exit:                                    ; preds = %56, %switch.lookup
  %.0.i = phi ptr [ %switch.load, %switch.lookup ], [ @.str.33, %56 ]
  %63 = call i32 (ptr, ptr, ...) @fprintf(ptr noundef %59, ptr noundef nonnull @.str.9, ptr noundef nonnull %.0.i) #20
  %64 = load i32, ptr %7, align 8, !tbaa !3
  %65 = icmp eq i32 %64, 5
  br i1 %65, label %66, label %71

66:                                               ; preds = %mode2Str.exit
  %67 = load ptr, ptr @stderr, align 8, !tbaa !14
  %68 = load float, ptr %2, align 8, !tbaa !165
  %69 = fpext float %68 to double
  %70 = call i32 (ptr, ptr, ...) @fprintf(ptr noundef %67, ptr noundef nonnull @.str.10, double noundef %69) #20
  br label %71

71:                                               ; preds = %66, %mode2Str.exit
  %72 = load ptr, ptr @stderr, align 8, !tbaa !14
  %73 = load i32, ptr %8, align 4, !tbaa !110
  %74 = call i32 (ptr, ptr, ...) @fprintf(ptr noundef %72, ptr noundef nonnull @.str.11, i32 noundef %73) #20
  %75 = load ptr, ptr @stderr, align 8, !tbaa !14
  %76 = load i32, ptr %6, align 8, !tbaa !106
  %77 = call i32 (ptr, ptr, ...) @fprintf(ptr noundef %75, ptr noundef nonnull @.str.12, i32 noundef %76) #20
  br label %78

78:                                               ; preds = %71, %54
  %79 = load i32, ptr %7, align 8, !tbaa !3
  call void @llvm.lifetime.end.p0(i64 4, ptr nonnull %5) #19
  call void @llvm.lifetime.end.p0(i64 4, ptr nonnull %4) #19
  ret i32 %79
}